Certificate:
    Data:
        Version: 3 (0x2)
        Serial Number: 5 (0x5)
    Signature Algorithm: sha256WithRSAEncryption
        Issuer: CN=MyTestCA
        Validity
            Not Before: Dec 18 23:38:39 2017 GMT
            Not After : May  5 23:38:39 2045 GMT
        Subject: CN=localhost, O=client
        Subject Public Key Info:
            Public Key Algorithm: rsaEncryption
                Public-Key: (2048 bit)
                Modulus:
                    00:cb:58:26:53:85:b2:d2:25:6e:b8:bd:09:2a:b3:
                    e7:c5:bb:05:bc:5e:57:41:1b:d5:9a:90:0a:55:4a:
                    b9:2f:c0:f7:d0:73:aa:fe:ed:8c:a4:8a:62:42:db:
                    e2:7b:5b:17:66:a7:2a:6a:a8:6a:59:fc:ac:8e:bb:
                    4c:ca:68:3f:50:73:e6:01:dd:f0:63:8a:c4:da:b6:
                    46:16:e8:fe:dd:14:f5:d8:71:06:4f:06:6c:55:c9:
                    41:63:04:ab:4c:5d:35:aa:4d:d5:27:dd:0d:9e:be:
                    47:6c:06:56:9c:0a:48:23:ce:c3:4e:9d:e2:bc:3f:
                    78:8f:ec:24:73:97:8f:94:97:38:e4:4e:75:eb:aa:
                    14:9f:6e:3c:8e:1f:0a:bf:37:9f:65:f7:2a:48:9e:
                    c1:f4:31:a6:b2:19:73:62:4d:b9:9f:4d:bd:2a:cb:
                    c6:c5:55:75:b6:63:f8:56:c8:4c:9d:98:b5:3a:e5:
                    16:96:09:cc:53:ca:3e:82:fb:e4:b4:ff:1b:aa:d3:
                    6c:01:1f:00:31:da:81:2e:82:7e:d8:a5:a1:bd:5d:
                    85:f7:22:01:fb:77:46:9b:23:0a:a1:b4:e1:66:b7:
                    ff:c9:9b:f6:be:0d:1a:39:d1:2e:1c:40:4c:a9:e5:
                    25:05:9c:57:99:95:f4:0c:67:1e:b0:cb:d3:4a:b0:
                    2c:cd
                Exponent: 65537 (0x10001)
        X509v3 extensions:
            X509v3 Basic Constraints: 
                CA:FALSE
    Signature Algorithm: sha256WithRSAEncryption
         27:c6:56:63:d5:18:c2:32:e7:c2:7c:45:2d:15:02:48:a7:eb:
         8a:fc:a2:70:65:e1:ce:2f:f2:fa:78:3c:e0:5f:f8:69:1f:a6:
         f1:cd:d7:32:f7:46:60:74:bf:18:71:81:f4:42:d8:90:a1:4b:
         83:07:b0:dc:c9:33:84:a4:e9:e4:84:e9:9a:02:c2:78:86:bd:
         b9:9e:30:63:d6:97:f3:8b:cc:0f:d5:81:dc:05:8c:01:7a:30:
         53:ab:2a:3c:23:b5:a4:16:dc:1b:a0:35:47:b5:2d:b5:6d:d8:
         a1:c8:98:7f:77:a9:00:3e:9e:44:c7:75:d8:91:15:56:7b:c4:
         a4:7c:0d:73:3b:a6:9a:55:59:c2:d7:f4:71:0d:1e:46:0e:da:
         01:9f:15:d8:02:6b:e6:85:23:64:1c:c5:da:b3:4e:18:23:33:
         79:80:c9:1c:cc:35:fd:0f:37:8d:12:40:6c:5d:a2:16:cb:17:
         e4:f7:90:b9:8f:8e:a5:ab:0e:c8:64:86:c3:b0:64:ef:46:7a:
         82:21:a9:4b:8f:bd:5a:a0:b4:54:84:36:2b:bc:4e:30:e3:8c:
         fe:ea:7f:49:c2:fb:2f:5a:7d:c6:16:7a:4c:8a:e3:ec:68:76:
         de:80:20:ab:f4:76:09:27:65:26:e1:31:9a:02:6a:af:08:39:
         aa:40:36:40
-----BEGIN CERTIFICATE-----
MIICuTCCAaGgAwIBAgIBBTANBgkqhkiG9w0BAQsFADATMREwDwYDVQQDDAhNeVRl
c3RDQTAeFw0xNzEyMTgyMzM4MzlaFw00NTA1MDUyMzM4MzlaMB4xHDAaBgNVBAMM
E2xvY2FsaG9zdCwgTz1jbGllbnQwggEiMA0GCSqGSIb3DQEBAQUAA4IBDwAwggEK
AoIBAQDLWCZThbLSJW64vQkqs+fFuwW8XldBG9WakApVSrkvwPfQc6r+7YykimJC
2+J7WxdmpypqqGpZ/KyOu0zKaD9Qc+YB3fBjisTatkYW6P7dFPXYcQZPBmxVyUFj
BKtMXTWqTdUn3Q2evkdsBlacCkgjzsNOneK8P3iP7CRzl4+UlzjkTnXrqhSfbjyO
Hwq/N59l9ypInsH0MaayGXNiTbmfTb0qy8bFVXW2Y/hWyEydmLU65RaWCcxTyj6C
++S0/xuq02wBHwAx2oEugn7YpaG9XYX3IgH7d0abIwqhtOFmt//Jm/a+DRo50S4c
QEyp5SUFnFeZlfQMZx6wy9NKsCzNAgMBAAGjDTALMAkGA1UdEwQCMAAwDQYJKoZI
hvcNAQELBQADggEBACfGVmPVGMIy58J8RS0VAkin64r8onBl4c4v8vp4POBf+Gkf
pvHN1zL3RmB0vxhxgfRC2JChS4MHsNzJM4Sk6eSE6ZoCwniGvbmeMGPWl/OLzA/V
gdwFjAF6MFOrKjwjtaQW3BugNUe1LbVt2KHImH93qQA+nkTHddiRFVZ7xKR8DXM7
pppVWcLX9HENHkYO2gGfFdgCa+aFI2QcxdqzThgjM3mAyRzMNf0PN40SQGxdohbL
F+T3kLmPjqWrDshkhsOwZO9GeoIhqUuPvVqgtFSENiu8TjDjjP7qf0nC+y9afcYW
ekyK4+xodt6AIKv0dgknZSbhMZoCaq8IOapANkA=
-----END CERTIFICATE-----
