Certificate:
    Data:
        Version: 3 (0x2)
        Serial Number: 6 (0x6)
    Signature Algorithm: sha256WithRSAEncryption
        Issuer: CN=MyTestCA
        Validity
            Not Before: Dec 18 23:42:53 2017 GMT
            Not After : May  5 23:42:53 2045 GMT
        Subject: CN=localhost, O=server
        Subject Public Key Info:
            Public Key Algorithm: rsaEncryption
                Public-Key: (2048 bit)
                Modulus:
                    00:a1:ff:8b:5b:3f:5e:7f:21:71:71:54:a0:53:da:
                    88:25:c6:42:20:34:57:a3:62:e6:1d:3a:0b:75:22:
                    0e:94:4d:07:c8:dc:15:f6:48:15:b7:c9:f2:81:c4:
                    7e:0b:b7:a8:2c:1b:a7:ec:d5:8c:d3:75:a4:b3:c2:
                    64:98:8d:18:c7:4b:9f:cb:5e:06:21:be:f6:03:c7:
                    e0:e4:ff:85:7b:07:44:71:ea:8f:b1:90:57:d3:73:
                    f1:12:a3:30:aa:f3:48:ee:45:84:d3:32:b2:1c:28:
                    27:21:11:83:6d:fd:76:4b:10:83:bd:02:e4:4a:81:
                    fd:bb:cc:24:c1:c9:e7:86:19:e0:3f:52:27:e4:b4:
                    b3:df:69:6d:4d:0e:ac:11:83:5b:1d:61:85:9c:9d:
                    11:05:2b:53:64:48:e9:cf:31:c5:7c:8c:5f:1f:d7:
                    fa:11:cf:19:a5:af:26:18:40:64:c6:2a:03:09:32:
                    09:9f:dc:fe:4c:f4:a0:4c:7b:c1:47:d7:d0:41:0b:
                    27:08:aa:c0:5d:70:27:7a:e1:49:54:21:fe:6e:45:
                    d6:c2:9f:1b:f0:7f:0c:6b:da:a4:4c:44:15:d3:2b:
                    02:db:9b:ea:99:05:3a:03:2f:0b:4a:f7:d8:38:55:
                    3c:31:47:bf:28:28:27:53:68:4d:f3:7f:f2:62:5b:
                    7a:d1
                Exponent: 65537 (0x10001)
        X509v3 extensions:
            X509v3 Basic Constraints: 
                CA:FALSE
    Signature Algorithm: sha256WithRSAEncryption
         79:01:07:ac:0e:33:ae:5d:af:47:6c:6d:0a:7c:21:16:41:63:
         9f:fa:0f:fc:d2:a6:b8:74:72:4b:5d:a7:ab:e0:42:6c:e3:52:
         7c:45:20:12:d0:9a:de:70:2c:75:04:15:9e:fa:48:1a:ec:a3:
         04:5d:37:9b:eb:84:eb:42:f2:04:53:90:d9:84:6c:9b:49:3a:
         39:e5:23:47:2e:ca:92:07:4b:5b:0b:69:fa:a6:5d:67:f7:e6:
         da:9b:f2:93:05:23:ce:e4:ad:5d:d8:7b:2c:1d:4f:0e:2d:88:
         d7:f4:86:70:6a:f6:d6:bd:68:fa:60:6b:d0:02:f1:bd:3c:77:
         09:4c:66:ce:95:57:3f:ce:97:2a:90:46:a9:f2:e1:8b:60:cb:
         95:78:5f:10:60:66:62:60:88:de:fc:42:44:9e:fd:b0:3c:47:
         cf:33:9e:eb:8f:dd:a1:14:9e:23:e9:a4:44:e4:35:65:4f:21:
         f4:29:6b:d5:33:23:3e:51:cb:6d:ce:81:d0:0e:6a:9c:b1:3c:
         5a:fc:a9:6f:8d:d0:8a:64:f0:99:59:56:9a:d4:25:75:27:d3:
         2e:85:ec:56:0d:99:1c:d1:54:54:96:7a:2d:04:15:8b:82:ab:
         d7:56:54:6b:73:0d:ab:a0:0e:94:3b:92:e3:b4:43:d7:fa:c7:
         2f:7c:57:5d
-----BEGIN CERTIFICATE-----
MIICuTCCAaGgAwIBAgIBBjANBgkqhkiG9w0BAQsFADATMREwDwYDVQQDDAhNeVRl
c3RDQTAeFw0xNzEyMTgyMzQyNTNaFw00NTA1MDUyMzQyNTNaMB4xHDAaBgNVBAMM
E2xvY2FsaG9zdCwgTz1zZXJ2ZXIwggEiMA0GCSqGSIb3DQEBAQUAA4IBDwAwggEK
AoIBAQCh/4tbP15/IXFxVKBT2oglxkIgNFejYuYdOgt1Ig6UTQfI3BX2SBW3yfKB
xH4Lt6gsG6fs1YzTdaSzwmSYjRjHS5/LXgYhvvYDx+Dk/4V7B0Rx6o+xkFfTc/ES
ozCq80juRYTTMrIcKCchEYNt/XZLEIO9AuRKgf27zCTByeeGGeA/UifktLPfaW1N
DqwRg1sdYYWcnREFK1NkSOnPMcV8jF8f1/oRzxmlryYYQGTGKgMJMgmf3P5M9KBM
e8FH19BBCycIqsBdcCd64UlUIf5uRdbCnxvwfwxr2qRMRBXTKwLbm+qZBToDLwtK
99g4VTwxR78oKCdTaE3zf/JiW3rRAgMBAAGjDTALMAkGA1UdEwQCMAAwDQYJKoZI
hvcNAQELBQADggEBAHkBB6wOM65dr0dsbQp8IRZBY5/6D/zSprh0cktdp6vgQmzj
UnxFIBLQmt5wLHUEFZ76SBrsowRdN5vrhOtC8gRTkNmEbJtJOjnlI0cuypIHS1sL
afqmXWf35tqb8pMFI87krV3YeywdTw4tiNf0hnBq9ta9aPpga9AC8b08dwlMZs6V
Vz/OlyqQRqny4Ytgy5V4XxBgZmJgiN78QkSe/bA8R88znuuP3aEUniPppETkNWVP
IfQpa9UzIz5Ry23OgdAOapyxPFr8qW+N0Ipk8JlZVprUJXUn0y6F7FYNmRzRVFSW
ei0EFYuCq9dWVGtzDaugDpQ7kuO0Q9f6xy98V10=
-----END CERTIFICATE-----
